target datalayout = "e-m:e-p270:32:32-p271:32:32-p272:64:64-i64:64-i128:128-f80:128-n8:16:32:64-S128"
target triple = "x86_64-pc-linux-gnu"

; Function Attrs: inlinehint nounwind uwtable
define internal ptr @sk_BIGNUM_const_value(ptr noundef %0, i32 noundef %1) #3 {
  %3 = alloca ptr, align 8
  %4 = alloca i32, align 4
  store ptr %0, ptr %3, align 8, !tbaa !22
  store i32 %1, ptr %4, align 4, !tbaa !12
  %5 = load ptr, ptr %3, align 8, !tbaa !22
  %6 = load i32, ptr %4, align 4, !tbaa !12
  %7 = call ptr @OPENSSL_sk_value(ptr noundef %5, i32 noundef %6)
  ret ptr %7
}

; Function Attrs: inlinehint nounwind uwtable
define internal i32 @sk_BIGNUM_const_num(ptr noundef %0) #3 {
  %2 = alloca ptr, align 8
  store ptr %0, ptr %2, align 8, !tbaa !22
  %3 = load ptr, ptr %2, align 8, !tbaa !22
  %4 = call i32 @OPENSSL_sk_num(ptr noundef %3)
  ret i32 %4
}

; Function Attrs: nounwind uwtable
define i32 @ossl_param_build_set_multi_key_bn(ptr noundef %0, ptr noundef %1, ptr noundef %2, ptr noundef %3) #0 {
  %5 = alloca i32, align 4
  %6 = alloca ptr, align 8
  %7 = alloca ptr, align 8
  %8 = alloca ptr, align 8
  %9 = alloca ptr, align 8
  %10 = alloca i32, align 4
  %11 = alloca i32, align 4
  %12 = alloca ptr, align 8
  %13 = alloca ptr, align 8
  %14 = alloca i32, align 4
  store ptr %0, ptr %6, align 8, !tbaa !3
  store ptr %1, ptr %7, align 8, !tbaa !8
  store ptr %2, ptr %8, align 8, !tbaa !20
  store ptr %3, ptr %9, align 8, !tbaa !22
  call void @llvm.lifetime.start.p0(i64 4, ptr %10) #4
  call void @llvm.lifetime.start.p0(i64 4, ptr %11) #4
  %15 = load ptr, ptr %9, align 8, !tbaa !22
  %16 = call i32 @sk_BIGNUM_const_num(ptr noundef %15)
  store i32 %16, ptr %11, align 4, !tbaa !12
  call void @llvm.lifetime.start.p0(i64 8, ptr %12) #4
  call void @llvm.lifetime.start.p0(i64 8, ptr %13) #4
  %17 = load ptr, ptr %6, align 8, !tbaa !3
  %18 = icmp ne ptr %17, null
  br i1 %18, label %19, label %55

19:                                               ; preds = %4
  store i32 0, ptr %10, align 4, !tbaa !12
  br label %20

20:                                               ; preds = %51, %19
  %21 = load i32, ptr %10, align 4, !tbaa !12
  %22 = load i32, ptr %11, align 4, !tbaa !12
  %23 = icmp slt i32 %21, %22
  br i1 %23, label %24, label %31

24:                                               ; preds = %20
  %25 = load ptr, ptr %8, align 8, !tbaa !20
  %26 = load i32, ptr %10, align 4, !tbaa !12
  %27 = sext i32 %26 to i64
  %28 = getelementptr inbounds ptr, ptr %25, i64 %27
  %29 = load ptr, ptr %28, align 8, !tbaa !10
  %30 = icmp ne ptr %29, null
  br label %31

31:                                               ; preds = %24, %20
  %32 = phi i1 [ false, %20 ], [ %30, %24 ]
  br i1 %32, label %33, label %54

33:                                               ; preds = %31
  %34 = load ptr, ptr %9, align 8, !tbaa !22
  %35 = load i32, ptr %10, align 4, !tbaa !12
  %36 = call ptr @sk_BIGNUM_const_value(ptr noundef %34, i32 noundef %35)
  store ptr %36, ptr %13, align 8, !tbaa !16
  %37 = load ptr, ptr %13, align 8, !tbaa !16
  %38 = icmp ne ptr %37, null
  br i1 %38, label %39, label %50

39:                                               ; preds = %33
  %40 = load ptr, ptr %6, align 8, !tbaa !3
  %41 = load ptr, ptr %8, align 8, !tbaa !20
  %42 = load i32, ptr %10, align 4, !tbaa !12
  %43 = sext i32 %42 to i64
  %44 = getelementptr inbounds ptr, ptr %41, i64 %43
  %45 = load ptr, ptr %44, align 8, !tbaa !10
  %46 = load ptr, ptr %13, align 8, !tbaa !16
  %47 = call i32 @OSSL_PARAM_BLD_push_BN(ptr noundef %40, ptr noundef %45, ptr noundef %46)
  %48 = icmp ne i32 %47, 0
  br i1 %48, label %50, label %49

49:                                               ; preds = %39
  store i32 0, ptr %5, align 4
  store i32 1, ptr %14, align 4
  br label %97

50:                                               ; preds = %39, %33
  br label %51

51:                                               ; preds = %50
  %52 = load i32, ptr %10, align 4, !tbaa !12
  %53 = add nsw i32 %52, 1
  store i32 %53, ptr %10, align 4, !tbaa !12
  br label %20, !llvm.loop !24

54:                                               ; preds = %31
  store i32 1, ptr %5, align 4
  store i32 1, ptr %14, align 4
  br label %97

55:                                               ; preds = %4
  store i32 0, ptr %10, align 4, !tbaa !12
  br label %56

56:                                               ; preds = %93, %55
  %57 = load i32, ptr %10, align 4, !tbaa !12
  %58 = load i32, ptr %11, align 4, !tbaa !12
  %59 = icmp slt i32 %57, %58
  br i1 %59, label %60, label %67

60:                                               ; preds = %56
  %61 = load ptr, ptr %8, align 8, !tbaa !20
  %62 = load i32, ptr %10, align 4, !tbaa !12
  %63 = sext i32 %62 to i64
  %64 = getelementptr inbounds ptr, ptr %61, i64 %63
  %65 = load ptr, ptr %64, align 8, !tbaa !10
  %66 = icmp ne ptr %65, null
  br label %67

67:                                               ; preds = %60, %56
  %68 = phi i1 [ false, %56 ], [ %66, %60 ]
  br i1 %68, label %69, label %96

69:                                               ; preds = %67
  %70 = load ptr, ptr %9, align 8, !tbaa !22
  %71 = load i32, ptr %10, align 4, !tbaa !12
  %72 = call ptr @sk_BIGNUM_const_value(ptr noundef %70, i32 noundef %71)
  store ptr %72, ptr %13, align 8, !tbaa !16
  %73 = load ptr, ptr %7, align 8, !tbaa !8
  %74 = load ptr, ptr %8, align 8, !tbaa !20
  %75 = load i32, ptr %10, align 4, !tbaa !12
  %76 = sext i32 %75 to i64
  %77 = getelementptr inbounds ptr, ptr %74, i64 %76
  %78 = load ptr, ptr %77, align 8, !tbaa !10
  %79 = call ptr @OSSL_PARAM_locate(ptr noundef %73, ptr noundef %78)
  store ptr %79, ptr %12, align 8, !tbaa !8
  %80 = load ptr, ptr %12, align 8, !tbaa !8
  %81 = icmp ne ptr %80, null
  br i1 %81, label %82, label %92

82:                                               ; preds = %69
  %83 = load ptr, ptr %13, align 8, !tbaa !16
  %84 = icmp ne ptr %83, null
  br i1 %84, label %85, label %92

85:                                               ; preds = %82
  %86 = load ptr, ptr %12, align 8, !tbaa !8
  %87 = load ptr, ptr %13, align 8, !tbaa !16
  %88 = call i32 @OSSL_PARAM_set_BN(ptr noundef %86, ptr noundef %87)
  %89 = icmp ne i32 %88, 0
  br i1 %89, label %91, label %90

90:                                               ; preds = %85
  store i32 0, ptr %5, align 4
  store i32 1, ptr %14, align 4
  br label %97

91:                                               ; preds = %85
  br label %92

92:                                               ; preds = %91, %82, %69
  br label %93

93:                                               ; preds = %92
  %94 = load i32, ptr %10, align 4, !tbaa !12
  %95 = add nsw i32 %94, 1
  store i32 %95, ptr %10, align 4, !tbaa !12
  br label %56, !llvm.loop !26

96:                                               ; preds = %67
  store i32 1, ptr %5, align 4
  store i32 1, ptr %14, align 4
  br label %97

97:                                               ; preds = %96, %90, %54, %49
  call void @llvm.lifetime.end.p0(i64 8, ptr %13) #4
  call void @llvm.lifetime.end.p0(i64 8, ptr %12) #4
  call void @llvm.lifetime.end.p0(i64 4, ptr %11) #4
  call void @llvm.lifetime.end.p0(i64 4, ptr %10) #4
  %98 = load i32, ptr %5, align 4
  ret i32 %98
}