; Function Attrs: nounwind uwtable
define range(i32 0, 2) i32 @ossl_param_build_set_multi_key_bn(ptr noundef %0, ptr noundef %1, ptr noundef readonly captures(none) %2, ptr noundef %3) local_unnamed_addr #0 {
  %5 = tail call i32 @OPENSSL_sk_num(ptr noundef %3) #2
  %.not = icmp eq ptr %0, null
  %6 = icmp sgt i32 %5, 0
  br i1 %.not, label %.preheader, label %.preheader41

.preheader41:                                     ; preds = %4
  br i1 %6, label %.lr.ph.preheader, label %.critedge

.lr.ph.preheader:                                 ; preds = %.preheader41
  %wide.trip.count = zext nneg i32 %5 to i64
  br label %.lr.ph

.preheader:                                       ; preds = %4
  br i1 %6, label %.lr.ph50.preheader, label %.critedge

.lr.ph50.preheader:                               ; preds = %.preheader
  %wide.trip.count62 = zext nneg i32 %5 to i64
  br label %.lr.ph50

.lr.ph:                                           ; preds = %.lr.ph.preheader, %15
  %indvars.iv = phi i64 [ 0, %.lr.ph.preheader ], [ %indvars.iv.next, %15 ]
  %7 = getelementptr inbounds nuw ptr, ptr %2, i64 %indvars.iv
  %8 = load ptr, ptr %7, align 8, !tbaa !11
  %.not38 = icmp eq ptr %8, null
  br i1 %.not38, label %.critedge, label %9

9:                                                ; preds = %.lr.ph
  %10 = trunc nuw nsw i64 %indvars.iv to i32
  %11 = tail call ptr @OPENSSL_sk_value(ptr noundef %3, i32 noundef %10) #2
  %.not39 = icmp eq ptr %11, null
  br i1 %.not39, label %15, label %12

12:                                               ; preds = %9
  %13 = load ptr, ptr %7, align 8, !tbaa !11
  %14 = tail call i32 @OSSL_PARAM_BLD_push_BN(ptr noundef nonnull %0, ptr noundef %13, ptr noundef nonnull %11) #2
  %.not40 = icmp eq i32 %14, 0
  br i1 %.not40, label %.critedge, label %15

15:                                               ; preds = %9, %12
  %indvars.iv.next = add nuw nsw i64 %indvars.iv, 1
  %exitcond.not = icmp eq i64 %indvars.iv.next, %wide.trip.count
  br i1 %exitcond.not, label %.critedge, label %.lr.ph, !llvm.loop !12

.lr.ph50:                                         ; preds = %.lr.ph50.preheader, %27
  %indvars.iv59 = phi i64 [ 0, %.lr.ph50.preheader ], [ %indvars.iv.next60, %27 ]
  %16 = getelementptr inbounds nuw ptr, ptr %2, i64 %indvars.iv59
  %17 = load ptr, ptr %16, align 8, !tbaa !11
  %.not36 = icmp eq ptr %17, null
  br i1 %.not36, label %.critedge, label %18

18:                                               ; preds = %.lr.ph50
  %19 = trunc nuw nsw i64 %indvars.iv59 to i32
  %20 = tail call ptr @OPENSSL_sk_value(ptr noundef %3, i32 noundef %19) #2
  %21 = load ptr, ptr %16, align 8, !tbaa !11
  %22 = tail call ptr @OSSL_PARAM_locate(ptr noundef %1, ptr noundef %21) #2
  %23 = icmp ne ptr %22, null
  %24 = icmp ne ptr %20, null
  %or.cond = select i1 %23, i1 %24, i1 false
  br i1 %or.cond, label %25, label %27

25:                                               ; preds = %18
  %26 = tail call i32 @OSSL_PARAM_set_BN(ptr noundef nonnull %22, ptr noundef nonnull %20) #2
  %.not37 = icmp eq i32 %26, 0
  br i1 %.not37, label %.critedge, label %27

27:                                               ; preds = %18, %25
  %indvars.iv.next60 = add nuw nsw i64 %indvars.iv59, 1
  %exitcond63.not = icmp eq i64 %indvars.iv.next60, %wide.trip.count62
  br i1 %exitcond63.not, label %.critedge, label %.lr.ph50, !llvm.loop !14

.critedge:                                        ; preds = %12, %15, %.lr.ph, %25, %27, %.lr.ph50, %.preheader41, %.preheader
  %.0 = phi i32 [ 1, %.preheader ], [ 1, %.preheader41 ], [ 0, %25 ], [ 1, %27 ], [ 1, %.lr.ph50 ], [ 0, %12 ], [ 1, %15 ], [ 1, %.lr.ph ]
  ret i32 %.0
}